; Function Attrs: mustprogress uwtable
define void @_ZN7testing8internal12UnitTestImpl26RegisterParameterizedTestsEv(ptr noundef nonnull align 8 captures(address) dereferenceable(601) %0) local_unnamed_addr #3 align 2 {
  %2 = getelementptr inbounds nuw i8, ptr %0, i64 352
  %3 = load i8, ptr %2, align 8, !tbaa !1429, !range !16, !noundef !17
  %4 = trunc nuw i8 %3 to i1
  br i1 %4, label %16, label %5

5:                                                ; preds = %1
  %6 = getelementptr inbounds nuw i8, ptr %0, i64 232
  %7 = load ptr, ptr %6, align 8, !tbaa !1430
  %8 = getelementptr inbounds nuw i8, ptr %0, i64 240
  %9 = load ptr, ptr %8, align 8, !tbaa !1430
  %.not7.i = icmp eq ptr %7, %9
  br i1 %.not7.i, label %_ZN7testing8internal30ParameterizedTestSuiteRegistry13RegisterTestsEv.exit, label %.lr.ph.i

.lr.ph.i:                                         ; preds = %5, %.lr.ph.i
  %.sroa.04.08.i = phi ptr [ %14, %.lr.ph.i ], [ %7, %5 ]
  %10 = load ptr, ptr %.sroa.04.08.i, align 8, !tbaa !1431
  %11 = load ptr, ptr %10, align 8, !tbaa !32
  %12 = getelementptr inbounds nuw i8, ptr %11, i64 32
  %13 = load ptr, ptr %12, align 8
  tail call void %13(ptr noundef nonnull align 8 dereferenceable(8) %10)
  %14 = getelementptr inbounds nuw i8, ptr %.sroa.04.08.i, i64 8
  %.not.i = icmp eq ptr %14, %9
  br i1 %.not.i, label %_ZN7testing8internal30ParameterizedTestSuiteRegistry13RegisterTestsEv.exit, label %.lr.ph.i

_ZN7testing8internal30ParameterizedTestSuiteRegistry13RegisterTestsEv.exit: ; preds = %.lr.ph.i, %5
  %15 = getelementptr inbounds nuw i8, ptr %0, i64 256
  tail call void @_ZN7testing8internal34TypeParameterizedTestSuiteRegistry22CheckForInstantiationsEv(ptr noundef nonnull align 8 dereferenceable(48) %15)
  store i8 1, ptr %2, align 8, !tbaa !1429
  br label %16

16:                                               ; preds = %_ZN7testing8internal30ParameterizedTestSuiteRegistry13RegisterTestsEv.exit, %1
  ret void
}